target datalayout = "e-m:e-p270:32:32-p271:32:32-p272:64:64-i64:64-i128:128-f80:128-n8:16:32:64-S128"
target triple = "x86_64-pc-linux-gnu"

%struct.SDL_CameraDriver = type { ptr, ptr, %struct.SDL_CameraDriverImpl, ptr, ptr, %struct.SDL_PendingCameraEvent, ptr, %struct.SDL_AtomicInt, %struct.SDL_AtomicInt }
%struct.SDL_CameraDriverImpl = type { ptr, ptr, ptr, ptr, ptr, ptr, ptr, ptr, i8 }
%struct.SDL_PendingCameraEvent = type { i32, i32, ptr }
%struct.SDL_AtomicInt = type { i32 }

@camera_driver = internal global %struct.SDL_CameraDriver zeroinitializer, align 8

; Function Attrs: nounwind uwtable
define hidden void @SDL_QuitCamera() #0 {
  %1 = alloca ptr, align 8
  %2 = alloca ptr, align 8
  %3 = alloca ptr, align 8
  %4 = alloca ptr, align 8
  %5 = load ptr, ptr @camera_driver, align 8
  %6 = icmp ne ptr %5, null
  br i1 %6, label %8, label %7

7:                                                ; preds = %0
  br label %31

8:                                                ; preds = %0
  %9 = load ptr, ptr getelementptr inbounds nuw (%struct.SDL_CameraDriver, ptr @camera_driver, i32 0, i32 3), align 8
  call void @SDL_LockRWLockForWriting_REAL(ptr noundef %9)
  %10 = call i32 @SDL_SetAtomicInt_REAL(ptr noundef getelementptr inbounds nuw (%struct.SDL_CameraDriver, ptr @camera_driver, i32 0, i32 8), i32 noundef 1)
  call void @llvm.lifetime.start.p0(i64 8, ptr %1) #7
  %11 = load ptr, ptr getelementptr inbounds nuw (%struct.SDL_CameraDriver, ptr @camera_driver, i32 0, i32 4), align 8
  store ptr %11, ptr %1, align 8
  store ptr null, ptr getelementptr inbounds nuw (%struct.SDL_CameraDriver, ptr @camera_driver, i32 0, i32 4), align 8
  call void @llvm.lifetime.start.p0(i64 8, ptr %2) #7
  %12 = load ptr, ptr getelementptr inbounds nuw (%struct.SDL_PendingCameraEvent, ptr getelementptr inbounds nuw (%struct.SDL_CameraDriver, ptr @camera_driver, i32 0, i32 5), i32 0, i32 2), align 8
  store ptr %12, ptr %2, align 8
  store ptr null, ptr getelementptr inbounds nuw (%struct.SDL_PendingCameraEvent, ptr getelementptr inbounds nuw (%struct.SDL_CameraDriver, ptr @camera_driver, i32 0, i32 5), i32 0, i32 2), align 8
  %13 = call i32 @SDL_SetAtomicInt_REAL(ptr noundef getelementptr inbounds nuw (%struct.SDL_CameraDriver, ptr @camera_driver, i32 0, i32 7), i32 noundef 0)
  %14 = load ptr, ptr getelementptr inbounds nuw (%struct.SDL_CameraDriver, ptr @camera_driver, i32 0, i32 3), align 8
  call void @SDL_UnlockRWLock_REAL(ptr noundef %14)
  call void @llvm.lifetime.start.p0(i64 8, ptr %3) #7
  store ptr null, ptr %3, align 8
  call void @llvm.lifetime.start.p0(i64 8, ptr %4) #7
  %15 = load ptr, ptr %2, align 8
  store ptr %15, ptr %4, align 8
  br label %16

16:                                               ; preds = %25, %8
  %17 = load ptr, ptr %4, align 8
  %18 = icmp ne ptr %17, null
  br i1 %18, label %20, label %19

19:                                               ; preds = %16
  call void @llvm.lifetime.end.p0(i64 8, ptr %4) #7
  br label %27

20:                                               ; preds = %16
  %21 = load ptr, ptr %4, align 8
  %22 = getelementptr inbounds nuw %struct.SDL_PendingCameraEvent, ptr %21, i32 0, i32 2
  %23 = load ptr, ptr %22, align 8
  store ptr %23, ptr %3, align 8
  %24 = load ptr, ptr %4, align 8
  call void @SDL_free_REAL(ptr noundef %24)
  br label %25

25:                                               ; preds = %20
  %26 = load ptr, ptr %3, align 8
  store ptr %26, ptr %4, align 8
  br label %16, !llvm.loop !22

27:                                               ; preds = %19
  %28 = load ptr, ptr %1, align 8
  call void @SDL_DestroyHashTable(ptr noundef %28)
  %29 = load ptr, ptr getelementptr inbounds nuw (%struct.SDL_CameraDriverImpl, ptr getelementptr inbounds nuw (%struct.SDL_CameraDriver, ptr @camera_driver, i32 0, i32 2), i32 0, i32 7), align 8
  call void %29()
  %30 = load ptr, ptr getelementptr inbounds nuw (%struct.SDL_CameraDriver, ptr @camera_driver, i32 0, i32 3), align 8
  call void @SDL_DestroyRWLock_REAL(ptr noundef %30)
  call void @llvm.memset.p0.i64(ptr align 8 @camera_driver, i8 0, i64 136, i1 false)
  call void @llvm.lifetime.end.p0(i64 8, ptr %3) #7
  call void @llvm.lifetime.end.p0(i64 8, ptr %2) #7
  call void @llvm.lifetime.end.p0(i64 8, ptr %1) #7
  br label %31

31:                                               ; preds = %27, %7
  ret void
}