; Function Attrs: nounwind uwtable
define hidden void @SDL_QuitCamera() local_unnamed_addr #1 {
  %1 = load ptr, ptr @camera_driver, align 8
  %.not = icmp eq ptr %1, null
  br i1 %.not, label %13, label %2

2:                                                ; preds = %0
  %3 = load ptr, ptr getelementptr inbounds nuw (i8, ptr @camera_driver, i64 88), align 8
  tail call void @SDL_LockRWLockForWriting_REAL(ptr noundef %3) #11
  %4 = tail call i32 @SDL_SetAtomicInt_REAL(ptr noundef nonnull getelementptr inbounds nuw (i8, ptr @camera_driver, i64 132), i32 noundef 1) #11
  %5 = load ptr, ptr getelementptr inbounds nuw (i8, ptr @camera_driver, i64 96), align 8
  store ptr null, ptr getelementptr inbounds nuw (i8, ptr @camera_driver, i64 96), align 8
  %6 = load ptr, ptr getelementptr inbounds nuw (i8, ptr @camera_driver, i64 112), align 8
  store ptr null, ptr getelementptr inbounds nuw (i8, ptr @camera_driver, i64 112), align 8
  %7 = tail call i32 @SDL_SetAtomicInt_REAL(ptr noundef nonnull getelementptr inbounds nuw (i8, ptr @camera_driver, i64 128), i32 noundef 0) #11
  %8 = load ptr, ptr getelementptr inbounds nuw (i8, ptr @camera_driver, i64 88), align 8
  tail call void @SDL_UnlockRWLock_REAL(ptr noundef %8) #11
  %.not67 = icmp eq ptr %6, null
  br i1 %.not67, label %._crit_edge, label %.lr.ph

._crit_edge:                                      ; preds = %.lr.ph, %2
  tail call void @SDL_DestroyHashTable(ptr noundef %5) #11
  %9 = load ptr, ptr getelementptr inbounds nuw (i8, ptr @camera_driver, i64 72), align 8
  tail call void %9() #11
  %10 = load ptr, ptr getelementptr inbounds nuw (i8, ptr @camera_driver, i64 88), align 8
  tail call void @SDL_DestroyRWLock_REAL(ptr noundef %10) #11
  tail call void @llvm.memset.p0.i64(ptr noundef nonnull align 8 dereferenceable(136) @camera_driver, i8 0, i64 136, i1 false)
  br label %13

.lr.ph:                                           ; preds = %2, %.lr.ph
  %.08 = phi ptr [ %12, %.lr.ph ], [ %6, %2 ]
  %11 = getelementptr inbounds nuw i8, ptr %.08, i64 8
  %12 = load ptr, ptr %11, align 8
  tail call void @SDL_free_REAL(ptr noundef nonnull %.08) #11
  %.not6 = icmp eq ptr %12, null
  br i1 %.not6, label %._crit_edge, label %.lr.ph, !llvm.loop !22

13:                                               ; preds = %0, %._crit_edge
  ret void
}